; Function Attrs: nounwind uwtable
define ptr @l_EStateM_fromStateM___rarg(ptr noundef %0, ptr noundef %1) #0 {
  %3 = tail call ptr @lean_apply_1(ptr noundef %0, ptr noundef %1) #3
  %.val = load i32, ptr %3, align 4, !tbaa !4
  %4 = icmp eq i32 %.val, 1
  br i1 %4, label %41, label %5

5:                                                ; preds = %2
  %6 = getelementptr inbounds nuw i8, ptr %3, i64 8
  %7 = load ptr, ptr %6, align 8, !tbaa !10
  %8 = getelementptr inbounds nuw i8, ptr %3, i64 16
  %9 = load ptr, ptr %8, align 8, !tbaa !10
  %10 = ptrtoint ptr %9 to i64
  %11 = and i64 %10, 1
  %.not = icmp eq i64 %11, 0
  br i1 %.not, label %12, label %lean_inc.exit15

12:                                               ; preds = %5
  %.val.i = load i32, ptr %9, align 4, !tbaa !4
  %13 = icmp sgt i32 %.val.i, 0
  br i1 %13, label %14, label %16, !prof !9

14:                                               ; preds = %12
  %15 = add nuw i32 %.val.i, 1
  store i32 %15, ptr %9, align 4, !tbaa !4
  br label %lean_inc.exit15

16:                                               ; preds = %12
  %.not.i16 = icmp eq i32 %.val.i, 0
  br i1 %.not.i16, label %lean_inc.exit15, label %17

17:                                               ; preds = %16
  tail call void @lean_inc_ref_cold(ptr noundef nonnull %9) #3
  br label %lean_inc.exit15

lean_inc.exit15:                                  ; preds = %17, %16, %14, %5
  %18 = ptrtoint ptr %7 to i64
  %19 = and i64 %18, 1
  %.not20 = icmp eq i64 %19, 0
  br i1 %.not20, label %20, label %lean_inc.exit

20:                                               ; preds = %lean_inc.exit15
  %.val.i17 = load i32, ptr %7, align 4, !tbaa !4
  %21 = icmp sgt i32 %.val.i17, 0
  br i1 %21, label %22, label %24, !prof !9

22:                                               ; preds = %20
  %23 = add nuw i32 %.val.i17, 1
  store i32 %23, ptr %7, align 4, !tbaa !4
  br label %lean_inc.exit

24:                                               ; preds = %20
  %.not.i18 = icmp eq i32 %.val.i17, 0
  br i1 %.not.i18, label %lean_inc.exit, label %25

25:                                               ; preds = %24
  tail call void @lean_inc_ref_cold(ptr noundef nonnull %7) #3
  br label %lean_inc.exit

lean_inc.exit:                                    ; preds = %25, %24, %22, %lean_inc.exit15
  %26 = ptrtoint ptr %3 to i64
  %27 = and i64 %26, 1
  %.not21 = icmp eq i64 %27, 0
  br i1 %.not21, label %28, label %lean_dec.exit

28:                                               ; preds = %lean_inc.exit
  %29 = load i32, ptr %3, align 4, !tbaa !4
  %30 = icmp sgt i32 %29, 1
  br i1 %30, label %31, label %33, !prof !9

31:                                               ; preds = %28
  %32 = add nsw i32 %29, -1
  store i32 %32, ptr %3, align 4, !tbaa !4
  br label %lean_dec.exit

33:                                               ; preds = %28
  %.not.i = icmp eq i32 %29, 0
  br i1 %.not.i, label %lean_dec.exit, label %34

34:                                               ; preds = %33
  tail call void @lean_dec_ref_cold(ptr noundef nonnull %3) #3
  br label %lean_dec.exit

lean_dec.exit:                                    ; preds = %34, %33, %31, %lean_inc.exit
  tail call void @lean_inc_heartbeat() #3
  %35 = tail call noalias ptr @mi_malloc_small(i64 noundef 24) #3
  %36 = icmp eq ptr %35, null
  br i1 %36, label %37, label %lean_alloc_ctor.exit

37:                                               ; preds = %lean_dec.exit
  tail call void @lean_internal_panic_out_of_memory() #4
  unreachable

lean_alloc_ctor.exit:                             ; preds = %lean_dec.exit
  %38 = getelementptr inbounds nuw i8, ptr %35, i64 4
  store i32 1, ptr %35, align 4, !tbaa !4
  store i32 131096, ptr %38, align 4
  %39 = getelementptr inbounds nuw i8, ptr %35, i64 8
  store ptr %7, ptr %39, align 8, !tbaa !10
  %40 = getelementptr inbounds nuw i8, ptr %35, i64 16
  store ptr %9, ptr %40, align 8, !tbaa !10
  br label %41

41:                                               ; preds = %2, %lean_alloc_ctor.exit
  %.0 = phi ptr [ %35, %lean_alloc_ctor.exit ], [ %3, %2 ]
  ret ptr %.0
}